target datalayout = "e-m:e-p270:32:32-p271:32:32-p272:64:64-i64:64-i128:128-f80:128-n8:16:32:64-S128"
target triple = "x86_64-pc-linux-gnu"

%class.int3 = type { i32, i32, i32 }
%class.btHullTriangle = type { %class.int3, %class.int3, i32, i32, float }

@_ZZN14btHullTriangle4neibEiiE2er = internal global i32 -1, align 4

; Function Attrs: mustprogress nounwind uwtable
define linkonce_odr dso_local noundef nonnull align 4 dereferenceable(4) ptr @_ZN4int3ixEi(ptr noundef nonnull align 4 dereferenceable(12) %0, i32 noundef %1) #1 comdat align 2 {
  %3 = alloca ptr, align 8
  %4 = alloca i32, align 4
  store ptr %0, ptr %3, align 8, !tbaa !59
  store i32 %1, ptr %4, align 4, !tbaa !9
  %5 = load ptr, ptr %3, align 8
  %6 = getelementptr inbounds nuw %class.int3, ptr %5, i32 0, i32 0
  %7 = load i32, ptr %4, align 4, !tbaa !9
  %8 = sext i32 %7 to i64
  %9 = getelementptr inbounds i32, ptr %6, i64 %8
  ret ptr %9
}

; Function Attrs: mustprogress uwtable
define dso_local noundef nonnull align 4 dereferenceable(4) ptr @_ZN14btHullTriangle4neibEii(ptr noundef nonnull align 4 dereferenceable(36) %0, i32 noundef %1, i32 noundef %2) #8 align 2 {
  %4 = alloca ptr, align 8
  %5 = alloca ptr, align 8
  %6 = alloca i32, align 4
  %7 = alloca i32, align 4
  %8 = alloca i32, align 4
  %9 = alloca i32, align 4
  %10 = alloca i32, align 4
  %11 = alloca i32, align 4
  store ptr %0, ptr %5, align 8, !tbaa !64
  store i32 %1, ptr %6, align 4, !tbaa !9
  store i32 %2, ptr %7, align 4, !tbaa !9
  %12 = load ptr, ptr %5, align 8
  call void @llvm.lifetime.start.p0(i64 4, ptr %8) #14
  store i32 0, ptr %8, align 4, !tbaa !9
  br label %13

13:                                               ; preds = %58, %3
  %14 = load i32, ptr %8, align 4, !tbaa !9
  %15 = icmp slt i32 %14, 3
  br i1 %15, label %16, label %61

16:                                               ; preds = %13
  call void @llvm.lifetime.start.p0(i64 4, ptr %9) #14
  %17 = load i32, ptr %8, align 4, !tbaa !9
  %18 = add nsw i32 %17, 1
  %19 = srem i32 %18, 3
  store i32 %19, ptr %9, align 4, !tbaa !9
  call void @llvm.lifetime.start.p0(i64 4, ptr %10) #14
  %20 = load i32, ptr %8, align 4, !tbaa !9
  %21 = add nsw i32 %20, 2
  %22 = srem i32 %21, 3
  store i32 %22, ptr %10, align 4, !tbaa !9
  %23 = load i32, ptr %8, align 4, !tbaa !9
  %24 = call noundef nonnull align 4 dereferenceable(4) ptr @_ZN4int3ixEi(ptr noundef nonnull align 4 dereferenceable(12) %12, i32 noundef %23)
  %25 = load i32, ptr %24, align 4, !tbaa !9
  %26 = load i32, ptr %6, align 4, !tbaa !9
  %27 = icmp eq i32 %25, %26
  br i1 %27, label %28, label %38

28:                                               ; preds = %16
  %29 = load i32, ptr %9, align 4, !tbaa !9
  %30 = call noundef nonnull align 4 dereferenceable(4) ptr @_ZN4int3ixEi(ptr noundef nonnull align 4 dereferenceable(12) %12, i32 noundef %29)
  %31 = load i32, ptr %30, align 4, !tbaa !9
  %32 = load i32, ptr %7, align 4, !tbaa !9
  %33 = icmp eq i32 %31, %32
  br i1 %33, label %34, label %38

34:                                               ; preds = %28
  %35 = getelementptr inbounds nuw %class.btHullTriangle, ptr %12, i32 0, i32 1
  %36 = load i32, ptr %10, align 4, !tbaa !9
  %37 = call noundef nonnull align 4 dereferenceable(4) ptr @_ZN4int3ixEi(ptr noundef nonnull align 4 dereferenceable(12) %35, i32 noundef %36)
  store ptr %37, ptr %4, align 8
  store i32 1, ptr %11, align 4
  br label %55

38:                                               ; preds = %28, %16
  %39 = load i32, ptr %8, align 4, !tbaa !9
  %40 = call noundef nonnull align 4 dereferenceable(4) ptr @_ZN4int3ixEi(ptr noundef nonnull align 4 dereferenceable(12) %12, i32 noundef %39)
  %41 = load i32, ptr %40, align 4, !tbaa !9
  %42 = load i32, ptr %7, align 4, !tbaa !9
  %43 = icmp eq i32 %41, %42
  br i1 %43, label %44, label %54

44:                                               ; preds = %38
  %45 = load i32, ptr %9, align 4, !tbaa !9
  %46 = call noundef nonnull align 4 dereferenceable(4) ptr @_ZN4int3ixEi(ptr noundef nonnull align 4 dereferenceable(12) %12, i32 noundef %45)
  %47 = load i32, ptr %46, align 4, !tbaa !9
  %48 = load i32, ptr %6, align 4, !tbaa !9
  %49 = icmp eq i32 %47, %48
  br i1 %49, label %50, label %54

50:                                               ; preds = %44
  %51 = getelementptr inbounds nuw %class.btHullTriangle, ptr %12, i32 0, i32 1
  %52 = load i32, ptr %10, align 4, !tbaa !9
  %53 = call noundef nonnull align 4 dereferenceable(4) ptr @_ZN4int3ixEi(ptr noundef nonnull align 4 dereferenceable(12) %51, i32 noundef %52)
  store ptr %53, ptr %4, align 8
  store i32 1, ptr %11, align 4
  br label %55

54:                                               ; preds = %44, %38
  store i32 0, ptr %11, align 4
  br label %55

55:                                               ; preds = %54, %50, %34
  call void @llvm.lifetime.end.p0(i64 4, ptr %10) #14
  call void @llvm.lifetime.end.p0(i64 4, ptr %9) #14
  %56 = load i32, ptr %11, align 4
  switch i32 %56, label %62 [
    i32 0, label %57
  ]

57:                                               ; preds = %55
  br label %58

58:                                               ; preds = %57
  %59 = load i32, ptr %8, align 4, !tbaa !9
  %60 = add nsw i32 %59, 1
  store i32 %60, ptr %8, align 4, !tbaa !9
  br label %13, !llvm.loop !66

61:                                               ; preds = %13
  store ptr @_ZZN14btHullTriangle4neibEiiE2er, ptr %4, align 8
  store i32 1, ptr %11, align 4
  br label %62

62:                                               ; preds = %61, %55
  call void @llvm.lifetime.end.p0(i64 4, ptr %8) #14
  %63 = load ptr, ptr %4, align 8
  ret ptr %63
}