; Function Attrs: mustprogress nofree norecurse nosync nounwind willreturn memory(argmem: read) uwtable
define dso_local noundef nonnull align 4 dereferenceable(4) ptr @_ZN14btHullTriangle4neibEii(ptr noundef nonnull readonly align 4 captures(ret: address, provenance) dereferenceable(36) %0, i32 noundef %1, i32 noundef %2) local_unnamed_addr #7 align 2 {
  br label %4

4:                                                ; preds = %3, %33
  %indvars.iv = phi i64 [ 0, %3 ], [ %indvars.iv.next, %33 ]
  %indvars.iv.next = add nuw nsw i64 %indvars.iv, 1
  %5 = icmp eq i64 %indvars.iv.next, 3
  %6 = trunc nuw nsw i64 %indvars.iv.next to i32
  %7 = select i1 %5, i32 0, i32 %6
  %8 = getelementptr inbounds nuw i32, ptr %0, i64 %indvars.iv
  %9 = load i32, ptr %8, align 4, !tbaa !46
  %10 = icmp eq i32 %9, %1
  br i1 %10, label %11, label %21

11:                                               ; preds = %4
  %12 = zext nneg i32 %7 to i64
  %13 = getelementptr inbounds nuw i32, ptr %0, i64 %12
  %14 = load i32, ptr %13, align 4, !tbaa !46
  %15 = icmp eq i32 %14, %2
  br i1 %15, label %16, label %21

16:                                               ; preds = %11
  %.cmp.le = icmp eq i64 %indvars.iv, 0
  %17 = getelementptr inbounds nuw i8, ptr %0, i64 12
  %.urem.le = shl i64 %indvars.iv, 32
  %sext32 = add i64 %.urem.le, -4294967296
  %18 = ashr exact i64 %sext32, 32
  %19 = select i1 %.cmp.le, i64 2, i64 %18
  %20 = getelementptr inbounds i32, ptr %17, i64 %19
  br label %.thread

21:                                               ; preds = %11, %4
  %22 = icmp eq i32 %9, %2
  br i1 %22, label %23, label %33

23:                                               ; preds = %21
  %24 = zext nneg i32 %7 to i64
  %25 = getelementptr inbounds nuw i32, ptr %0, i64 %24
  %26 = load i32, ptr %25, align 4, !tbaa !46
  %27 = icmp eq i32 %26, %1
  br i1 %27, label %28, label %33

28:                                               ; preds = %23
  %.cmp.le23 = icmp eq i64 %indvars.iv, 0
  %29 = getelementptr inbounds nuw i8, ptr %0, i64 12
  %.urem.le26 = shl i64 %indvars.iv, 32
  %sext = add i64 %.urem.le26, -4294967296
  %30 = ashr exact i64 %sext, 32
  %31 = select i1 %.cmp.le23, i64 2, i64 %30
  %32 = getelementptr inbounds i32, ptr %29, i64 %31
  br label %.thread

33:                                               ; preds = %21, %23
  %exitcond.not = icmp eq i64 %indvars.iv.next, 3
  br i1 %exitcond.not, label %.thread, label %4, !llvm.loop !50

.thread:                                          ; preds = %33, %28, %16
  %.2 = phi ptr [ %32, %28 ], [ %20, %16 ], [ @_ZZN14btHullTriangle4neibEiiE2er, %33 ]
  ret ptr %.2
}